target datalayout = "e-m:e-p270:32:32-p271:32:32-p272:64:64-i64:64-i128:128-f80:128-n8:16:32:64-S128"
target triple = "x86_64-pc-linux-gnu"

; Function Attrs: mustprogress uwtable
define internal noundef i32 @_ZL19xtc_at_header_startP8_IO_FILEP3XDRiPiPf(ptr noundef %0, ptr noundef %1, i32 noundef %2, ptr noundef %3, ptr noundef %4) #0 {
  %6 = alloca i32, align 4
  %7 = alloca ptr, align 8
  %8 = alloca ptr, align 8
  %9 = alloca i32, align 4
  %10 = alloca ptr, align 8
  %11 = alloca ptr, align 8
  %12 = alloca [3 x i32], align 4
  %13 = alloca [10 x float], align 16
  %14 = alloca i32, align 4
  %15 = alloca i64, align 8
  %16 = alloca i32, align 4
  store ptr %0, ptr %7, align 8, !tbaa !31
  store ptr %1, ptr %8, align 8, !tbaa !17
  store i32 %2, ptr %9, align 4, !tbaa !13
  store ptr %3, ptr %10, align 8, !tbaa !21
  store ptr %4, ptr %11, align 8, !tbaa !19
  call void @llvm.lifetime.start.p0(i64 12, ptr %12) #11
  call void @llvm.lifetime.start.p0(i64 40, ptr %13) #11
  call void @llvm.lifetime.start.p0(i64 4, ptr %14) #11
  call void @llvm.lifetime.start.p0(i64 8, ptr %15) #11
  %17 = load ptr, ptr %7, align 8, !tbaa !31
  %18 = call noundef i64 @_Z9gmx_ftellP8_IO_FILE(ptr noundef %17)
  store i64 %18, ptr %15, align 8, !tbaa !23
  %19 = icmp slt i64 %18, 0
  br i1 %19, label %20, label %21

20:                                               ; preds = %5
  store i32 -1, ptr %6, align 4
  store i32 1, ptr %16, align 4
  br label %124

21:                                               ; preds = %5
  store i32 0, ptr %14, align 4, !tbaa !13
  br label %22

22:                                               ; preds = %38, %21
  %23 = load i32, ptr %14, align 4, !tbaa !13
  %24 = icmp slt i32 %23, 3
  br i1 %24, label %25, label %41

25:                                               ; preds = %22
  %26 = load ptr, ptr %8, align 8, !tbaa !17
  %27 = load i32, ptr %14, align 4, !tbaa !13
  %28 = sext i32 %27 to i64
  %29 = getelementptr inbounds [3 x i32], ptr %12, i64 0, i64 %28
  %30 = call noundef i32 @_Z7xdr_intP3XDRPi(ptr noundef %26, ptr noundef %29)
  %31 = icmp ne i32 %30, 0
  br i1 %31, label %37, label %32

32:                                               ; preds = %25
  %33 = load ptr, ptr %7, align 8, !tbaa !31
  %34 = load i64, ptr %15, align 8, !tbaa !23
  %35 = add nsw i64 %34, 4
  %36 = call noundef i32 @_Z9gmx_fseekP8_IO_FILEli(ptr noundef %33, i64 noundef %35, i32 noundef 0)
  store i32 -1, ptr %6, align 4
  store i32 1, ptr %16, align 4
  br label %124

37:                                               ; preds = %25
  br label %38

38:                                               ; preds = %37
  %39 = load i32, ptr %14, align 4, !tbaa !13
  %40 = add nsw i32 %39, 1
  store i32 %40, ptr %14, align 4, !tbaa !13
  br label %22, !llvm.loop !75

41:                                               ; preds = %22
  %42 = getelementptr inbounds [3 x i32], ptr %12, i64 0, i64 0
  %43 = load i32, ptr %42, align 4, !tbaa !13
  %44 = icmp ne i32 %43, 1995
  br i1 %44, label %45, label %57

45:                                               ; preds = %41
  %46 = getelementptr inbounds [3 x i32], ptr %12, i64 0, i64 0
  %47 = load i32, ptr %46, align 4, !tbaa !13
  %48 = icmp ne i32 %47, 2023
  br i1 %48, label %49, label %57

49:                                               ; preds = %45
  %50 = load ptr, ptr %7, align 8, !tbaa !31
  %51 = load i64, ptr %15, align 8, !tbaa !23
  %52 = add nsw i64 %51, 4
  %53 = call noundef i32 @_Z9gmx_fseekP8_IO_FILEli(ptr noundef %50, i64 noundef %52, i32 noundef 0)
  %54 = icmp ne i32 %53, 0
  br i1 %54, label %55, label %56

55:                                               ; preds = %49
  store i32 -1, ptr %6, align 4
  store i32 1, ptr %16, align 4
  br label %124

56:                                               ; preds = %49
  store i32 0, ptr %6, align 4
  store i32 1, ptr %16, align 4
  br label %124

57:                                               ; preds = %45, %41
  store i32 0, ptr %14, align 4, !tbaa !13
  br label %58

58:                                               ; preds = %74, %57
  %59 = load i32, ptr %14, align 4, !tbaa !13
  %60 = icmp slt i32 %59, 10
  br i1 %60, label %61, label %77

61:                                               ; preds = %58
  %62 = load ptr, ptr %8, align 8, !tbaa !17
  %63 = load i32, ptr %14, align 4, !tbaa !13
  %64 = sext i32 %63 to i64
  %65 = getelementptr inbounds [10 x float], ptr %13, i64 0, i64 %64
  %66 = call noundef i32 @_Z9xdr_floatP3XDRPf(ptr noundef %62, ptr noundef %65)
  %67 = icmp ne i32 %66, 0
  br i1 %67, label %73, label %68

68:                                               ; preds = %61
  %69 = load ptr, ptr %7, align 8, !tbaa !31
  %70 = load i64, ptr %15, align 8, !tbaa !23
  %71 = add nsw i64 %70, 4
  %72 = call noundef i32 @_Z9gmx_fseekP8_IO_FILEli(ptr noundef %69, i64 noundef %71, i32 noundef 0)
  store i32 -1, ptr %6, align 4
  store i32 1, ptr %16, align 4
  br label %124

73:                                               ; preds = %61
  br label %74

74:                                               ; preds = %73
  %75 = load i32, ptr %14, align 4, !tbaa !13
  %76 = add nsw i32 %75, 1
  store i32 %76, ptr %14, align 4, !tbaa !13
  br label %58, !llvm.loop !76

77:                                               ; preds = %58
  %78 = getelementptr inbounds [3 x i32], ptr %12, i64 0, i64 1
  %79 = load i32, ptr %78, align 4, !tbaa !13
  %80 = load i32, ptr %9, align 4, !tbaa !13
  %81 = icmp eq i32 %79, %80
  br i1 %81, label %82, label %116

82:                                               ; preds = %77
  %83 = getelementptr inbounds [10 x float], ptr %13, i64 0, i64 1
  %84 = load float, ptr %83, align 4, !tbaa !15
  %85 = fcmp une float %84, 0.000000e+00
  br i1 %85, label %86, label %90

86:                                               ; preds = %82
  %87 = getelementptr inbounds [10 x float], ptr %13, i64 0, i64 6
  %88 = load float, ptr %87, align 8, !tbaa !15
  %89 = fcmp oeq float %88, 0.000000e+00
  br i1 %89, label %102, label %90

90:                                               ; preds = %86, %82
  %91 = getelementptr inbounds [10 x float], ptr %13, i64 0, i64 1
  %92 = load float, ptr %91, align 4, !tbaa !15
  %93 = fcmp oeq float %92, 0.000000e+00
  br i1 %93, label %94, label %116

94:                                               ; preds = %90
  %95 = getelementptr inbounds [10 x float], ptr %13, i64 0, i64 5
  %96 = load float, ptr %95, align 4, !tbaa !15
  %97 = fcmp oeq float %96, 0.000000e+00
  br i1 %97, label %98, label %116

98:                                               ; preds = %94
  %99 = getelementptr inbounds [10 x float], ptr %13, i64 0, i64 9
  %100 = load float, ptr %99, align 4, !tbaa !15
  %101 = fcmp oeq float %100, 0.000000e+00
  br i1 %101, label %102, label %116

102:                                              ; preds = %98, %86
  %103 = load ptr, ptr %7, align 8, !tbaa !31
  %104 = load i64, ptr %15, align 8, !tbaa !23
  %105 = add nsw i64 %104, 4
  %106 = call noundef i32 @_Z9gmx_fseekP8_IO_FILEli(ptr noundef %103, i64 noundef %105, i32 noundef 0)
  %107 = icmp ne i32 %106, 0
  br i1 %107, label %108, label %109

108:                                              ; preds = %102
  store i32 -1, ptr %6, align 4
  store i32 1, ptr %16, align 4
  br label %124

109:                                              ; preds = %102
  %110 = getelementptr inbounds [10 x float], ptr %13, i64 0, i64 0
  %111 = load float, ptr %110, align 16, !tbaa !15
  %112 = load ptr, ptr %11, align 8, !tbaa !19
  store float %111, ptr %112, align 4, !tbaa !15
  %113 = getelementptr inbounds [3 x i32], ptr %12, i64 0, i64 2
  %114 = load i32, ptr %113, align 4, !tbaa !13
  %115 = load ptr, ptr %10, align 8, !tbaa !21
  store i32 %114, ptr %115, align 4, !tbaa !13
  store i32 1, ptr %6, align 4
  store i32 1, ptr %16, align 4
  br label %124

116:                                              ; preds = %98, %94, %90, %77
  %117 = load ptr, ptr %7, align 8, !tbaa !31
  %118 = load i64, ptr %15, align 8, !tbaa !23
  %119 = add nsw i64 %118, 4
  %120 = call noundef i32 @_Z9gmx_fseekP8_IO_FILEli(ptr noundef %117, i64 noundef %119, i32 noundef 0)
  %121 = icmp ne i32 %120, 0
  br i1 %121, label %122, label %123

122:                                              ; preds = %116
  store i32 -1, ptr %6, align 4
  store i32 1, ptr %16, align 4
  br label %124

123:                                              ; preds = %116
  store i32 0, ptr %6, align 4
  store i32 1, ptr %16, align 4
  br label %124

124:                                              ; preds = %123, %122, %109, %108, %68, %56, %55, %32, %20
  call void @llvm.lifetime.end.p0(i64 8, ptr %15) #11
  call void @llvm.lifetime.end.p0(i64 4, ptr %14) #11
  call void @llvm.lifetime.end.p0(i64 40, ptr %13) #11
  call void @llvm.lifetime.end.p0(i64 12, ptr %12) #11
  %125 = load i32, ptr %6, align 4
  ret i32 %125
}