; Function Attrs: mustprogress uwtable
define internal fastcc noundef range(i32 -1, 2) i32 @_ZL19xtc_at_header_startP8_IO_FILEP3XDRiPiPf(ptr noundef %0, ptr noundef %1, i32 noundef %2, ptr noundef nonnull writeonly captures(none) %3, ptr noundef nonnull writeonly captures(none) %4) unnamed_addr #3 {
  %6 = alloca [3 x i32], align 4
  %7 = alloca [10 x float], align 16
  call void @llvm.lifetime.start.p0(i64 12, ptr nonnull %6) #17
  call void @llvm.lifetime.start.p0(i64 40, ptr nonnull %7) #17
  %8 = tail call noundef i64 @_Z9gmx_ftellP8_IO_FILE(ptr noundef %0)
  %9 = icmp slt i64 %8, 0
  br i1 %9, label %57, label %.preheader

10:                                               ; preds = %.preheader
  %indvars.iv.next = add nuw nsw i64 %indvars.iv, 1
  %exitcond.not = icmp eq i64 %indvars.iv.next, 3
  br i1 %exitcond.not, label %16, label %.preheader, !llvm.loop !54

.preheader:                                       ; preds = %5, %10
  %indvars.iv = phi i64 [ %indvars.iv.next, %10 ], [ 0, %5 ]
  %11 = getelementptr inbounds nuw [3 x i32], ptr %6, i64 0, i64 %indvars.iv
  %12 = call noundef i32 @_Z7xdr_intP3XDRPi(ptr noundef %1, ptr noundef nonnull %11)
  %.not38 = icmp eq i32 %12, 0
  br i1 %.not38, label %13, label %10

13:                                               ; preds = %.preheader
  %14 = add nuw nsw i64 %8, 4
  %15 = call noundef i32 @_Z9gmx_fseekP8_IO_FILEli(ptr noundef %0, i64 noundef %14, i32 noundef 0)
  br label %57

16:                                               ; preds = %10
  %17 = load i32, ptr %6, align 4, !tbaa !16
  switch i32 %17, label %18 [
    i32 2023, label %.preheader47
    i32 1995, label %.preheader47
  ]

.preheader47:                                     ; preds = %16, %16
  br label %22

18:                                               ; preds = %16
  %19 = add nuw nsw i64 %8, 4
  %20 = call noundef i32 @_Z9gmx_fseekP8_IO_FILEli(ptr noundef %0, i64 noundef %19, i32 noundef 0)
  %.not37 = icmp ne i32 %20, 0
  %. = sext i1 %.not37 to i32
  br label %57

21:                                               ; preds = %22
  %indvars.iv.next44 = add nuw nsw i64 %indvars.iv43, 1
  %exitcond46.not = icmp eq i64 %indvars.iv.next44, 10
  br i1 %exitcond46.not, label %28, label %22, !llvm.loop !55

22:                                               ; preds = %.preheader47, %21
  %indvars.iv43 = phi i64 [ %indvars.iv.next44, %21 ], [ 0, %.preheader47 ]
  %23 = getelementptr inbounds nuw [10 x float], ptr %7, i64 0, i64 %indvars.iv43
  %24 = call noundef i32 @_Z9xdr_floatP3XDRPf(ptr noundef %1, ptr noundef nonnull %23)
  %.not36 = icmp eq i32 %24, 0
  br i1 %.not36, label %25, label %21

25:                                               ; preds = %22
  %26 = add nuw nsw i64 %8, 4
  %27 = call noundef i32 @_Z9gmx_fseekP8_IO_FILEli(ptr noundef %0, i64 noundef %26, i32 noundef 0)
  br label %57

28:                                               ; preds = %21
  %29 = getelementptr inbounds nuw i8, ptr %6, i64 4
  %30 = load i32, ptr %29, align 4, !tbaa !16
  %31 = icmp eq i32 %30, %2
  br i1 %31, label %32, label %54

32:                                               ; preds = %28
  %33 = getelementptr inbounds nuw i8, ptr %7, i64 4
  %34 = load float, ptr %33, align 4, !tbaa !20
  %35 = fcmp une float %34, 0.000000e+00
  %36 = getelementptr inbounds nuw i8, ptr %7, i64 24
  %37 = load float, ptr %36, align 8
  %38 = fcmp oeq float %37, 0.000000e+00
  %or.cond5 = select i1 %35, i1 %38, i1 false
  br i1 %or.cond5, label %47, label %39

39:                                               ; preds = %32
  %40 = fcmp oeq float %34, 0.000000e+00
  %41 = getelementptr inbounds nuw i8, ptr %7, i64 20
  %42 = load float, ptr %41, align 4
  %43 = fcmp oeq float %42, 0.000000e+00
  %or.cond8 = select i1 %40, i1 %43, i1 false
  %44 = getelementptr inbounds nuw i8, ptr %7, i64 36
  %45 = load float, ptr %44, align 4
  %46 = fcmp oeq float %45, 0.000000e+00
  %or.cond11 = select i1 %or.cond8, i1 %46, i1 false
  br i1 %or.cond11, label %47, label %54

47:                                               ; preds = %39, %32
  %48 = add nuw nsw i64 %8, 4
  %49 = call noundef i32 @_Z9gmx_fseekP8_IO_FILEli(ptr noundef %0, i64 noundef %48, i32 noundef 0)
  %.not35 = icmp eq i32 %49, 0
  br i1 %.not35, label %50, label %57

50:                                               ; preds = %47
  %51 = load float, ptr %7, align 16, !tbaa !20
  store float %51, ptr %4, align 4, !tbaa !20
  %52 = getelementptr inbounds nuw i8, ptr %6, i64 8
  %53 = load i32, ptr %52, align 4, !tbaa !16
  store i32 %53, ptr %3, align 4, !tbaa !16
  br label %57

54:                                               ; preds = %39, %28
  %55 = add nuw nsw i64 %8, 4
  %56 = call noundef i32 @_Z9gmx_fseekP8_IO_FILEli(ptr noundef %0, i64 noundef %55, i32 noundef 0)
  %.not = icmp ne i32 %56, 0
  %.39 = sext i1 %.not to i32
  br label %57

57:                                               ; preds = %54, %47, %18, %5, %50, %25, %13
  %.0 = phi i32 [ -1, %13 ], [ -1, %25 ], [ 1, %50 ], [ -1, %5 ], [ %., %18 ], [ -1, %47 ], [ %.39, %54 ]
  call void @llvm.lifetime.end.p0(i64 40, ptr nonnull %7) #17
  call void @llvm.lifetime.end.p0(i64 12, ptr nonnull %6) #17
  ret i32 %.0
}